; Function Attrs: nofree norecurse nosync nounwind memory(readwrite, inaccessiblemem: none) uwtable
define internal fastcc void @CorrectAlphaChannel(ptr noundef readonly captures(none) %0) unnamed_addr #3 {
  %2 = getelementptr inbounds nuw i8, ptr %0, i64 24
  %3 = load ptr, ptr %2, align 8
  %.ptr = getelementptr inbounds nuw i8, ptr %3, i64 3
  %4 = getelementptr inbounds nuw i8, ptr %0, i64 12
  %5 = load i32, ptr %4, align 4
  %6 = getelementptr inbounds nuw i8, ptr %0, i64 16
  %7 = load i32, ptr %6, align 8
  %8 = mul nsw i32 %7, %5
  %9 = sext i32 %8 to i64
  %10 = getelementptr i8, ptr %3, i64 %9
  %.ptr20 = getelementptr i8, ptr %10, i64 3
  %11 = icmp sgt i32 %8, 0
  br i1 %11, label %.lr.ph, label %.critedge.preheader

12:                                               ; preds = %.lr.ph
  %13 = getelementptr inbounds nuw i8, ptr %.01517, i64 4
  %14 = icmp ult ptr %13, %.ptr20
  br i1 %14, label %.lr.ph, label %.critedge.preheader, !llvm.loop !11

.critedge.preheader:                              ; preds = %12, %1
  %15 = icmp ult ptr %.ptr, %.ptr20
  br i1 %15, label %.critedge, label %.loopexit

.lr.ph:                                           ; preds = %1, %12
  %.01517 = phi ptr [ %13, %12 ], [ %.ptr, %1 ]
  %16 = load i8, ptr %.01517, align 1
  %.not = icmp eq i8 %16, 0
  br i1 %.not, label %12, label %.loopexit

.critedge:                                        ; preds = %.critedge.preheader, %.critedge
  %.118 = phi ptr [ %17, %.critedge ], [ %.ptr, %.critedge.preheader ]
  store i8 -1, ptr %.118, align 1
  %17 = getelementptr inbounds nuw i8, ptr %.118, i64 4
  %18 = icmp ult ptr %17, %.ptr20
  br i1 %18, label %.critedge, label %.loopexit, !llvm.loop !12

.loopexit:                                        ; preds = %.lr.ph, %.critedge, %.critedge.preheader
  ret void
}